; Function Attrs: mustprogress uwtable
define internal void @_ZNK12_GLOBAL__N_116itanium_demangle15LiteralOperator9printLeftERNS0_12OutputBufferE(ptr noundef nonnull readonly align 8 captures(none) dereferenceable(24) %0, ptr noundef nonnull align 8 dereferenceable(44) %1) unnamed_addr #2 align 2 {
  %3 = getelementptr inbounds nuw i8, ptr %1, i64 16
  %4 = load i64, ptr %3, align 8, !tbaa !224
  %5 = add i64 %4, 11
  %6 = getelementptr inbounds nuw i8, ptr %1, i64 24
  %7 = load i64, ptr %6, align 8, !tbaa !225
  %8 = icmp ugt i64 %5, %7
  br i1 %8, label %9, label %._ZN12_GLOBAL__N_116itanium_demangle12OutputBuffer4growEm.exit_crit_edge.i

._ZN12_GLOBAL__N_116itanium_demangle12OutputBuffer4growEm.exit_crit_edge.i: ; preds = %2
  %.phi.trans.insert.i = getelementptr inbounds nuw i8, ptr %1, i64 8
  %.pre.i = load ptr, ptr %.phi.trans.insert.i, align 8, !tbaa !222
  br label %_ZN12_GLOBAL__N_116itanium_demangle12OutputBuffer4growEm.exit.i

9:                                                ; preds = %2
  %10 = add i64 %4, 1003
  %11 = shl i64 %7, 1
  %spec.select.i.i = tail call i64 @llvm.umax.i64(i64 %11, i64 %10)
  store i64 %spec.select.i.i, ptr %6, align 8, !tbaa !225
  %12 = getelementptr inbounds nuw i8, ptr %1, i64 8
  %13 = load ptr, ptr %12, align 8, !tbaa !222
  %14 = tail call ptr @realloc(ptr noundef %13, i64 noundef %spec.select.i.i) #34
  store ptr %14, ptr %12, align 8, !tbaa !222
  %15 = icmp eq ptr %14, null
  br i1 %15, label %16, label %._ZN12_GLOBAL__N_116itanium_demangle12OutputBuffer4growEm.exit_crit_edge4.i

._ZN12_GLOBAL__N_116itanium_demangle12OutputBuffer4growEm.exit_crit_edge4.i: ; preds = %9
  %.pre5.i = load i64, ptr %3, align 8, !tbaa !224
  br label %_ZN12_GLOBAL__N_116itanium_demangle12OutputBuffer4growEm.exit.i

16:                                               ; preds = %9
  tail call void @abort() #33
  unreachable

_ZN12_GLOBAL__N_116itanium_demangle12OutputBuffer4growEm.exit.i: ; preds = %._ZN12_GLOBAL__N_116itanium_demangle12OutputBuffer4growEm.exit_crit_edge4.i, %._ZN12_GLOBAL__N_116itanium_demangle12OutputBuffer4growEm.exit_crit_edge.i
  %17 = phi i64 [ %4, %._ZN12_GLOBAL__N_116itanium_demangle12OutputBuffer4growEm.exit_crit_edge.i ], [ %.pre5.i, %._ZN12_GLOBAL__N_116itanium_demangle12OutputBuffer4growEm.exit_crit_edge4.i ]
  %18 = phi ptr [ %.pre.i, %._ZN12_GLOBAL__N_116itanium_demangle12OutputBuffer4growEm.exit_crit_edge.i ], [ %14, %._ZN12_GLOBAL__N_116itanium_demangle12OutputBuffer4growEm.exit_crit_edge4.i ]
  %19 = getelementptr inbounds nuw i8, ptr %18, i64 %17
  tail call void @llvm.memcpy.p0.p0.i64(ptr noundef nonnull align 1 dereferenceable(11) %19, ptr noundef nonnull readonly align 1 dereferenceable(11) @.str.328, i64 11, i1 false)
  %20 = load i64, ptr %3, align 8, !tbaa !224
  %21 = add i64 %20, 11
  store i64 %21, ptr %3, align 8, !tbaa !224
  %22 = getelementptr inbounds nuw i8, ptr %0, i64 16
  %23 = load ptr, ptr %22, align 8, !tbaa !278
  %24 = load ptr, ptr %1, align 8, !tbaa !214
  %25 = getelementptr inbounds nuw i8, ptr %24, i64 16
  %26 = load ptr, ptr %25, align 8
  tail call void %26(ptr noundef nonnull align 8 dereferenceable(44) %1, ptr noundef nonnull align 8 dereferenceable(11) %23)
  %27 = getelementptr inbounds nuw i8, ptr %23, i64 9
  %28 = load i16, ptr %27, align 1
  %.mask3.i = and i16 %28, 192
  %.not.i3 = icmp eq i16 %.mask3.i, 64
  br i1 %.not.i3, label %_ZNK12_GLOBAL__N_116itanium_demangle4Node5printERNS0_12OutputBufferE.exit, label %29

29:                                               ; preds = %_ZN12_GLOBAL__N_116itanium_demangle12OutputBuffer4growEm.exit.i
  %30 = load ptr, ptr %1, align 8, !tbaa !214
  %31 = getelementptr inbounds nuw i8, ptr %30, i64 24
  %32 = load ptr, ptr %31, align 8
  tail call void %32(ptr noundef nonnull align 8 dereferenceable(44) %1, ptr noundef nonnull align 8 dereferenceable(11) %23)
  br label %_ZNK12_GLOBAL__N_116itanium_demangle4Node5printERNS0_12OutputBufferE.exit

_ZNK12_GLOBAL__N_116itanium_demangle4Node5printERNS0_12OutputBufferE.exit: ; preds = %_ZN12_GLOBAL__N_116itanium_demangle12OutputBuffer4growEm.exit.i, %29
  ret void
}